; Function Attrs: nounwind uwtable
define void @Java_sun_security_pkcs11_wrapper_PKCS11_C_1DigestInit(ptr noundef %0, ptr noundef %1, i64 noundef %2, ptr noundef %3) local_unnamed_addr #0 {
  %5 = tail call ptr @getFunctionList(ptr noundef %0, ptr noundef %1) #5
  %6 = icmp eq ptr %5, null
  br i1 %6, label %18, label %7

7:                                                ; preds = %4
  %8 = tail call ptr @jMechanismToCKMechanismPtr(ptr noundef %0, ptr noundef %3) #5
  %9 = load ptr, ptr %0, align 8
  %10 = getelementptr inbounds i8, ptr %9, i64 1824
  %11 = load ptr, ptr %10, align 8
  %12 = tail call zeroext i8 %11(ptr noundef nonnull %0) #5
  %.not = icmp eq i8 %12, 0
  br i1 %.not, label %13, label %18

13:                                               ; preds = %7
  %14 = getelementptr inbounds i8, ptr %5, i64 304
  %15 = load ptr, ptr %14, align 8
  %16 = tail call i64 %15(i64 noundef %2, ptr noundef %8) #5
  tail call void @freeCKMechanismPtr(ptr noundef %8) #5
  %17 = tail call i64 @ckAssertReturnValueOK(ptr noundef nonnull %0, i64 noundef %16) #5
  br label %18

18:                                               ; preds = %13, %7, %4
  ret void
}